; Function Attrs: mustprogress uwtable
define internal noundef nonnull ptr @_ZL28tcp_server_create_fd_handlerP15grpc_tcp_server(ptr noundef %0) #5 personality ptr @__gxx_personality_v0 {
  %2 = tail call noalias noundef nonnull dereferenceable(16) ptr @_Znwm(i64 noundef 16) #35
  store ptr getelementptr inbounds nuw inrange(-16, 24) (i8, ptr @_ZTVN12_GLOBAL__N_125ExternalConnectionHandlerE, i64 16), ptr %2, align 8, !tbaa !77
  %3 = getelementptr inbounds nuw i8, ptr %2, i64 8
  store ptr %0, ptr %3, align 8, !tbaa !212
  %4 = getelementptr inbounds nuw i8, ptr %0, i64 184
  store ptr %2, ptr %4, align 8, !tbaa !87
  ret ptr %2
}